target datalayout = "e-m:e-p270:32:32-p271:32:32-p272:64:64-i64:64-i128:128-f80:128-n8:16:32:64-S128"
target triple = "x86_64-pc-linux-gnu"

%struct.expert_field = type { i32, i32 }
%struct.mbim_conv_info = type { ptr, ptr, i32, i32, i32 }

@hf_mbim_set_ms_provisioned_context_v2_ip_type = internal global i32 0, align 4
@hf_mbim_set_ms_provisioned_context_v2_enable = internal global i32 0, align 4
@hf_mbim_set_ms_provisioned_context_v2_roaming = internal global i32 0, align 4
@hf_mbim_set_ms_provisioned_context_v2_media_type = internal global i32 0, align 4
@hf_mbim_set_ms_provisioned_context_v2_source = internal global i32 0, align 4
@hf_mbim_set_ms_provisioned_context_v2_access_string = internal global i32 0, align 4
@hf_mbim_set_ms_provisioned_context_v2_access_string_offset = internal global i32 0, align 4
@hf_mbim_set_ms_provisioned_context_v2_access_string_size = internal global i32 0, align 4
@hf_mbim_set_ms_provisioned_context_v2_user_name = internal global i32 0, align 4
@hf_mbim_set_ms_provisioned_context_v2_user_name_offset = internal global i32 0, align 4
@hf_mbim_set_ms_provisioned_context_v2_user_name_size = internal global i32 0, align 4
@hf_mbim_set_ms_provisioned_context_v2_password = internal global i32 0, align 4
@hf_mbim_set_ms_provisioned_context_v2_password_offset = internal global i32 0, align 4
@hf_mbim_set_ms_provisioned_context_v2_password_size = internal global i32 0, align 4
@hf_mbim_set_ms_provisioned_context_v2_compression = internal global i32 0, align 4
@hf_mbim_set_ms_provisioned_context_v2_auth_protocol = internal global i32 0, align 4
@ett_mbim_pair_list = internal global i32 0, align 4
@ei_mbim_oversized_string = internal global %struct.expert_field zeroinitializer, align 4
@preferred_mbim_extended_version = internal global i32 1, align 4
@.str.2536 = private unnamed_addr constant [8 x i8] c"S-NSSAI\00", align 1

; Function Attrs: nounwind uwtable
define internal void @mbim_dissect_ms_context_v2_base(ptr noundef %0, ptr noundef %1, ptr noundef %2, ptr noundef %3, i32 noundef %4, ptr noundef %5) #0 {
  %7 = alloca ptr, align 8
  %8 = alloca ptr, align 8
  %9 = alloca ptr, align 8
  %10 = alloca ptr, align 8
  %11 = alloca i32, align 4
  %12 = alloca ptr, align 8
  %13 = alloca i32, align 4
  %14 = alloca i32, align 4
  %15 = alloca i32, align 4
  %16 = alloca i32, align 4
  %17 = alloca i32, align 4
  %18 = alloca i32, align 4
  %19 = alloca ptr, align 8
  %20 = alloca ptr, align 8
  store ptr %0, ptr %7, align 8
  store ptr %1, ptr %8, align 8
  store ptr %2, ptr %9, align 8
  store ptr %3, ptr %10, align 8
  store i32 %4, ptr %11, align 4
  store ptr %5, ptr %12, align 8
  %21 = load ptr, ptr %7, align 8
  %22 = load ptr, ptr %8, align 8
  %23 = load ptr, ptr %9, align 8
  %24 = load ptr, ptr %10, align 8
  %25 = call zeroext i8 @mbim_dissect_context_type_uuid(ptr noundef %21, ptr noundef %22, ptr noundef %23, ptr noundef %24)
  %26 = load ptr, ptr %9, align 8
  %27 = load i32, ptr @hf_mbim_set_ms_provisioned_context_v2_ip_type, align 4
  %28 = load ptr, ptr %7, align 8
  %29 = load ptr, ptr %10, align 8
  %30 = load i32, ptr %29, align 4
  %31 = call ptr @proto_tree_add_item(ptr noundef %26, i32 noundef %27, ptr noundef %28, i32 noundef %30, i32 noundef 4, i32 noundef -2147483648)
  %32 = load ptr, ptr %10, align 8
  %33 = load i32, ptr %32, align 4
  %34 = add i32 %33, 4
  store i32 %34, ptr %32, align 4
  %35 = load ptr, ptr %9, align 8
  %36 = load i32, ptr @hf_mbim_set_ms_provisioned_context_v2_enable, align 4
  %37 = load ptr, ptr %7, align 8
  %38 = load ptr, ptr %10, align 8
  %39 = load i32, ptr %38, align 4
  %40 = call ptr @proto_tree_add_item(ptr noundef %35, i32 noundef %36, ptr noundef %37, i32 noundef %39, i32 noundef 4, i32 noundef -2147483648)
  %41 = load ptr, ptr %10, align 8
  %42 = load i32, ptr %41, align 4
  %43 = add i32 %42, 4
  store i32 %43, ptr %41, align 4
  %44 = load ptr, ptr %9, align 8
  %45 = load i32, ptr @hf_mbim_set_ms_provisioned_context_v2_roaming, align 4
  %46 = load ptr, ptr %7, align 8
  %47 = load ptr, ptr %10, align 8
  %48 = load i32, ptr %47, align 4
  %49 = call ptr @proto_tree_add_item(ptr noundef %44, i32 noundef %45, ptr noundef %46, i32 noundef %48, i32 noundef 4, i32 noundef -2147483648)
  %50 = load ptr, ptr %10, align 8
  %51 = load i32, ptr %50, align 4
  %52 = add i32 %51, 4
  store i32 %52, ptr %50, align 4
  %53 = load ptr, ptr %9, align 8
  %54 = load i32, ptr @hf_mbim_set_ms_provisioned_context_v2_media_type, align 4
  %55 = load ptr, ptr %7, align 8
  %56 = load ptr, ptr %10, align 8
  %57 = load i32, ptr %56, align 4
  %58 = call ptr @proto_tree_add_item(ptr noundef %53, i32 noundef %54, ptr noundef %55, i32 noundef %57, i32 noundef 4, i32 noundef -2147483648)
  %59 = load ptr, ptr %10, align 8
  %60 = load i32, ptr %59, align 4
  %61 = add i32 %60, 4
  store i32 %61, ptr %59, align 4
  %62 = load ptr, ptr %9, align 8
  %63 = load i32, ptr @hf_mbim_set_ms_provisioned_context_v2_source, align 4
  %64 = load ptr, ptr %7, align 8
  %65 = load ptr, ptr %10, align 8
  %66 = load i32, ptr %65, align 4
  %67 = call ptr @proto_tree_add_item(ptr noundef %62, i32 noundef %63, ptr noundef %64, i32 noundef %66, i32 noundef 4, i32 noundef -2147483648)
  %68 = load ptr, ptr %10, align 8
  %69 = load i32, ptr %68, align 4
  %70 = add i32 %69, 4
  store i32 %70, ptr %68, align 4
  %71 = load ptr, ptr %9, align 8
  %72 = load i32, ptr @hf_mbim_set_ms_provisioned_context_v2_access_string_offset, align 4
  %73 = load ptr, ptr %7, align 8
  %74 = load ptr, ptr %10, align 8
  %75 = load i32, ptr %74, align 4
  %76 = call ptr @proto_tree_add_item_ret_uint(ptr noundef %71, i32 noundef %72, ptr noundef %73, i32 noundef %75, i32 noundef 4, i32 noundef -2147483648, ptr noundef %13)
  %77 = load ptr, ptr %10, align 8
  %78 = load i32, ptr %77, align 4
  %79 = add i32 %78, 4
  store i32 %79, ptr %77, align 4
  %80 = load ptr, ptr %9, align 8
  %81 = load i32, ptr @hf_mbim_set_ms_provisioned_context_v2_access_string_size, align 4
  %82 = load ptr, ptr %7, align 8
  %83 = load ptr, ptr %10, align 8
  %84 = load i32, ptr %83, align 4
  %85 = call ptr @proto_tree_add_item_ret_uint(ptr noundef %80, i32 noundef %81, ptr noundef %82, i32 noundef %84, i32 noundef 4, i32 noundef -2147483648, ptr noundef %14)
  %86 = load ptr, ptr %10, align 8
  %87 = load i32, ptr %86, align 4
  %88 = add i32 %87, 4
  store i32 %88, ptr %86, align 4
  %89 = load ptr, ptr %9, align 8
  %90 = load i32, ptr @hf_mbim_set_ms_provisioned_context_v2_user_name_offset, align 4
  %91 = load ptr, ptr %7, align 8
  %92 = load ptr, ptr %10, align 8
  %93 = load i32, ptr %92, align 4
  %94 = call ptr @proto_tree_add_item_ret_uint(ptr noundef %89, i32 noundef %90, ptr noundef %91, i32 noundef %93, i32 noundef 4, i32 noundef -2147483648, ptr noundef %15)
  %95 = load ptr, ptr %10, align 8
  %96 = load i32, ptr %95, align 4
  %97 = add i32 %96, 4
  store i32 %97, ptr %95, align 4
  %98 = load ptr, ptr %9, align 8
  %99 = load i32, ptr @hf_mbim_set_ms_provisioned_context_v2_user_name_size, align 4
  %100 = load ptr, ptr %7, align 8
  %101 = load ptr, ptr %10, align 8
  %102 = load i32, ptr %101, align 4
  %103 = call ptr @proto_tree_add_item_ret_uint(ptr noundef %98, i32 noundef %99, ptr noundef %100, i32 noundef %102, i32 noundef 4, i32 noundef -2147483648, ptr noundef %16)
  %104 = load ptr, ptr %10, align 8
  %105 = load i32, ptr %104, align 4
  %106 = add i32 %105, 4
  store i32 %106, ptr %104, align 4
  %107 = load ptr, ptr %9, align 8
  %108 = load i32, ptr @hf_mbim_set_ms_provisioned_context_v2_password_offset, align 4
  %109 = load ptr, ptr %7, align 8
  %110 = load ptr, ptr %10, align 8
  %111 = load i32, ptr %110, align 4
  %112 = call ptr @proto_tree_add_item_ret_uint(ptr noundef %107, i32 noundef %108, ptr noundef %109, i32 noundef %111, i32 noundef 4, i32 noundef -2147483648, ptr noundef %17)
  %113 = load ptr, ptr %10, align 8
  %114 = load i32, ptr %113, align 4
  %115 = add i32 %114, 4
  store i32 %115, ptr %113, align 4
  %116 = load ptr, ptr %9, align 8
  %117 = load i32, ptr @hf_mbim_set_ms_provisioned_context_v2_password_size, align 4
  %118 = load ptr, ptr %7, align 8
  %119 = load ptr, ptr %10, align 8
  %120 = load i32, ptr %119, align 4
  %121 = call ptr @proto_tree_add_item_ret_uint(ptr noundef %116, i32 noundef %117, ptr noundef %118, i32 noundef %120, i32 noundef 4, i32 noundef -2147483648, ptr noundef %18)
  %122 = load ptr, ptr %10, align 8
  %123 = load i32, ptr %122, align 4
  %124 = add i32 %123, 4
  store i32 %124, ptr %122, align 4
  %125 = load ptr, ptr %9, align 8
  %126 = load i32, ptr @hf_mbim_set_ms_provisioned_context_v2_compression, align 4
  %127 = load ptr, ptr %7, align 8
  %128 = load ptr, ptr %10, align 8
  %129 = load i32, ptr %128, align 4
  %130 = call ptr @proto_tree_add_item(ptr noundef %125, i32 noundef %126, ptr noundef %127, i32 noundef %129, i32 noundef 4, i32 noundef -2147483648)
  %131 = load ptr, ptr %10, align 8
  %132 = load i32, ptr %131, align 4
  %133 = add i32 %132, 4
  store i32 %133, ptr %131, align 4
  %134 = load ptr, ptr %9, align 8
  %135 = load i32, ptr @hf_mbim_set_ms_provisioned_context_v2_auth_protocol, align 4
  %136 = load ptr, ptr %7, align 8
  %137 = load ptr, ptr %10, align 8
  %138 = load i32, ptr %137, align 4
  %139 = call ptr @proto_tree_add_item(ptr noundef %134, i32 noundef %135, ptr noundef %136, i32 noundef %138, i32 noundef 4, i32 noundef -2147483648)
  %140 = load ptr, ptr %10, align 8
  %141 = load i32, ptr %140, align 4
  %142 = add i32 %141, 4
  store i32 %142, ptr %140, align 4
  %143 = load ptr, ptr %12, align 8
  %144 = getelementptr inbounds %struct.mbim_conv_info, ptr %143, i32 0, i32 4
  %145 = load i32, ptr %144, align 8
  %146 = icmp uge i32 %145, 4
  br i1 %146, label %155, label %147

147:                                              ; preds = %6
  %148 = load ptr, ptr %12, align 8
  %149 = getelementptr inbounds %struct.mbim_conv_info, ptr %148, i32 0, i32 4
  %150 = load i32, ptr %149, align 8
  %151 = icmp eq i32 %150, 0
  br i1 %151, label %152, label %156

152:                                              ; preds = %147
  %153 = load i32, ptr @preferred_mbim_extended_version, align 4
  %154 = icmp sge i32 %153, 4
  br i1 %154, label %155, label %156

155:                                              ; preds = %152, %6
  br i1 true, label %157, label %168

156:                                              ; preds = %152, %147
  br i1 false, label %157, label %168

157:                                              ; preds = %156, %155
  %158 = load ptr, ptr %9, align 8
  %159 = load ptr, ptr %7, align 8
  %160 = load ptr, ptr %10, align 8
  %161 = load i32, ptr %160, align 4
  %162 = load i32, ptr @ett_mbim_pair_list, align 4
  %163 = call ptr (ptr, ptr, i32, i32, i32, ptr, ptr, ...) @proto_tree_add_subtree_format(ptr noundef %158, ptr noundef %159, i32 noundef %161, i32 noundef 0, i32 noundef %162, ptr noundef null, ptr noundef @.str.2536)
  store ptr %163, ptr %20, align 8
  %164 = load ptr, ptr %7, align 8
  %165 = load ptr, ptr %8, align 8
  %166 = load ptr, ptr %20, align 8
  %167 = load ptr, ptr %10, align 8
  call void @mbim_dissect_tlv_ie(ptr noundef %164, ptr noundef %165, ptr noundef %166, ptr noundef %167)
  br label %168

168:                                              ; preds = %157, %156, %155
  %169 = load i32, ptr %13, align 4
  %170 = icmp ne i32 %169, 0
  br i1 %170, label %171, label %190

171:                                              ; preds = %168
  %172 = load i32, ptr %14, align 4
  %173 = icmp ne i32 %172, 0
  br i1 %173, label %174, label %190

174:                                              ; preds = %171
  %175 = load ptr, ptr %9, align 8
  %176 = load i32, ptr @hf_mbim_set_ms_provisioned_context_v2_access_string, align 4
  %177 = load ptr, ptr %7, align 8
  %178 = load i32, ptr %11, align 4
  %179 = load i32, ptr %13, align 4
  %180 = add i32 %178, %179
  %181 = load i32, ptr %14, align 4
  %182 = call ptr @proto_tree_add_item(ptr noundef %175, i32 noundef %176, ptr noundef %177, i32 noundef %180, i32 noundef %181, i32 noundef -2147483644)
  store ptr %182, ptr %19, align 8
  %183 = load i32, ptr %14, align 4
  %184 = icmp ugt i32 %183, 200
  br i1 %184, label %185, label %189

185:                                              ; preds = %174
  %186 = load ptr, ptr %8, align 8
  %187 = load ptr, ptr %19, align 8
  %188 = call ptr @expert_add_info(ptr noundef %186, ptr noundef %187, ptr noundef @ei_mbim_oversized_string)
  br label %189

189:                                              ; preds = %185, %174
  br label %190

190:                                              ; preds = %189, %171, %168
  %191 = load i32, ptr %15, align 4
  %192 = icmp ne i32 %191, 0
  br i1 %192, label %193, label %212

193:                                              ; preds = %190
  %194 = load i32, ptr %16, align 4
  %195 = icmp ne i32 %194, 0
  br i1 %195, label %196, label %212

196:                                              ; preds = %193
  %197 = load ptr, ptr %9, align 8
  %198 = load i32, ptr @hf_mbim_set_ms_provisioned_context_v2_user_name, align 4
  %199 = load ptr, ptr %7, align 8
  %200 = load i32, ptr %11, align 4
  %201 = load i32, ptr %15, align 4
  %202 = add i32 %200, %201
  %203 = load i32, ptr %16, align 4
  %204 = call ptr @proto_tree_add_item(ptr noundef %197, i32 noundef %198, ptr noundef %199, i32 noundef %202, i32 noundef %203, i32 noundef -2147483644)
  store ptr %204, ptr %19, align 8
  %205 = load i32, ptr %16, align 4
  %206 = icmp ugt i32 %205, 510
  br i1 %206, label %207, label %211

207:                                              ; preds = %196
  %208 = load ptr, ptr %8, align 8
  %209 = load ptr, ptr %19, align 8
  %210 = call ptr @expert_add_info(ptr noundef %208, ptr noundef %209, ptr noundef @ei_mbim_oversized_string)
  br label %211

211:                                              ; preds = %207, %196
  br label %212

212:                                              ; preds = %211, %193, %190
  %213 = load i32, ptr %17, align 4
  %214 = icmp ne i32 %213, 0
  br i1 %214, label %215, label %234

215:                                              ; preds = %212
  %216 = load i32, ptr %18, align 4
  %217 = icmp ne i32 %216, 0
  br i1 %217, label %218, label %234

218:                                              ; preds = %215
  %219 = load ptr, ptr %9, align 8
  %220 = load i32, ptr @hf_mbim_set_ms_provisioned_context_v2_password, align 4
  %221 = load ptr, ptr %7, align 8
  %222 = load i32, ptr %11, align 4
  %223 = load i32, ptr %17, align 4
  %224 = add i32 %222, %223
  %225 = load i32, ptr %18, align 4
  %226 = call ptr @proto_tree_add_item(ptr noundef %219, i32 noundef %220, ptr noundef %221, i32 noundef %224, i32 noundef %225, i32 noundef -2147483644)
  store ptr %226, ptr %19, align 8
  %227 = load i32, ptr %18, align 4
  %228 = icmp ugt i32 %227, 510
  br i1 %228, label %229, label %233

229:                                              ; preds = %218
  %230 = load ptr, ptr %8, align 8
  %231 = load ptr, ptr %19, align 8
  %232 = call ptr @expert_add_info(ptr noundef %230, ptr noundef %231, ptr noundef @ei_mbim_oversized_string)
  br label %233

233:                                              ; preds = %229, %218
  br label %234

234:                                              ; preds = %233, %215, %212
  ret void
}