; Function Attrs: nounwind uwtable
define internal fastcc void @mbim_dissect_ms_context_v2_base(ptr noundef %0, ptr noundef %1, ptr noundef %2, ptr noundef nonnull captures(none) %3, i32 noundef %4, ptr noundef readonly captures(none) %5) unnamed_addr #0 {
  %7 = alloca i32, align 4
  %8 = alloca i32, align 4
  %9 = alloca i32, align 4
  %10 = alloca i32, align 4
  %11 = alloca i32, align 4
  %12 = alloca i32, align 4
  tail call fastcc void @mbim_dissect_context_type_uuid(ptr noundef %0, ptr noundef %1, ptr noundef %2, ptr noundef %3)
  %13 = load i32, ptr @hf_mbim_set_ms_provisioned_context_v2_ip_type, align 4
  %14 = load i32, ptr %3, align 4
  %15 = tail call ptr @proto_tree_add_item(ptr noundef %2, i32 noundef %13, ptr noundef %0, i32 noundef %14, i32 noundef 4, i32 noundef -2147483648) #10
  %16 = load i32, ptr %3, align 4
  %17 = add i32 %16, 4
  store i32 %17, ptr %3, align 4
  %18 = load i32, ptr @hf_mbim_set_ms_provisioned_context_v2_enable, align 4
  %19 = tail call ptr @proto_tree_add_item(ptr noundef %2, i32 noundef %18, ptr noundef %0, i32 noundef %17, i32 noundef 4, i32 noundef -2147483648) #10
  %20 = load i32, ptr %3, align 4
  %21 = add i32 %20, 4
  store i32 %21, ptr %3, align 4
  %22 = load i32, ptr @hf_mbim_set_ms_provisioned_context_v2_roaming, align 4
  %23 = tail call ptr @proto_tree_add_item(ptr noundef %2, i32 noundef %22, ptr noundef %0, i32 noundef %21, i32 noundef 4, i32 noundef -2147483648) #10
  %24 = load i32, ptr %3, align 4
  %25 = add i32 %24, 4
  store i32 %25, ptr %3, align 4
  %26 = load i32, ptr @hf_mbim_set_ms_provisioned_context_v2_media_type, align 4
  %27 = tail call ptr @proto_tree_add_item(ptr noundef %2, i32 noundef %26, ptr noundef %0, i32 noundef %25, i32 noundef 4, i32 noundef -2147483648) #10
  %28 = load i32, ptr %3, align 4
  %29 = add i32 %28, 4
  store i32 %29, ptr %3, align 4
  %30 = load i32, ptr @hf_mbim_set_ms_provisioned_context_v2_source, align 4
  %31 = tail call ptr @proto_tree_add_item(ptr noundef %2, i32 noundef %30, ptr noundef %0, i32 noundef %29, i32 noundef 4, i32 noundef -2147483648) #10
  %32 = load i32, ptr %3, align 4
  %33 = add i32 %32, 4
  store i32 %33, ptr %3, align 4
  %34 = load i32, ptr @hf_mbim_set_ms_provisioned_context_v2_access_string_offset, align 4
  %35 = call ptr @proto_tree_add_item_ret_uint(ptr noundef %2, i32 noundef %34, ptr noundef %0, i32 noundef %33, i32 noundef 4, i32 noundef -2147483648, ptr noundef nonnull %7) #10
  %36 = load i32, ptr %3, align 4
  %37 = add i32 %36, 4
  store i32 %37, ptr %3, align 4
  %38 = load i32, ptr @hf_mbim_set_ms_provisioned_context_v2_access_string_size, align 4
  %39 = call ptr @proto_tree_add_item_ret_uint(ptr noundef %2, i32 noundef %38, ptr noundef %0, i32 noundef %37, i32 noundef 4, i32 noundef -2147483648, ptr noundef nonnull %8) #10
  %40 = load i32, ptr %3, align 4
  %41 = add i32 %40, 4
  store i32 %41, ptr %3, align 4
  %42 = load i32, ptr @hf_mbim_set_ms_provisioned_context_v2_user_name_offset, align 4
  %43 = call ptr @proto_tree_add_item_ret_uint(ptr noundef %2, i32 noundef %42, ptr noundef %0, i32 noundef %41, i32 noundef 4, i32 noundef -2147483648, ptr noundef nonnull %9) #10
  %44 = load i32, ptr %3, align 4
  %45 = add i32 %44, 4
  store i32 %45, ptr %3, align 4
  %46 = load i32, ptr @hf_mbim_set_ms_provisioned_context_v2_user_name_size, align 4
  %47 = call ptr @proto_tree_add_item_ret_uint(ptr noundef %2, i32 noundef %46, ptr noundef %0, i32 noundef %45, i32 noundef 4, i32 noundef -2147483648, ptr noundef nonnull %10) #10
  %48 = load i32, ptr %3, align 4
  %49 = add i32 %48, 4
  store i32 %49, ptr %3, align 4
  %50 = load i32, ptr @hf_mbim_set_ms_provisioned_context_v2_password_offset, align 4
  %51 = call ptr @proto_tree_add_item_ret_uint(ptr noundef %2, i32 noundef %50, ptr noundef %0, i32 noundef %49, i32 noundef 4, i32 noundef -2147483648, ptr noundef nonnull %11) #10
  %52 = load i32, ptr %3, align 4
  %53 = add i32 %52, 4
  store i32 %53, ptr %3, align 4
  %54 = load i32, ptr @hf_mbim_set_ms_provisioned_context_v2_password_size, align 4
  %55 = call ptr @proto_tree_add_item_ret_uint(ptr noundef %2, i32 noundef %54, ptr noundef %0, i32 noundef %53, i32 noundef 4, i32 noundef -2147483648, ptr noundef nonnull %12) #10
  %56 = load i32, ptr %3, align 4
  %57 = add i32 %56, 4
  store i32 %57, ptr %3, align 4
  %58 = load i32, ptr @hf_mbim_set_ms_provisioned_context_v2_compression, align 4
  %59 = call ptr @proto_tree_add_item(ptr noundef %2, i32 noundef %58, ptr noundef %0, i32 noundef %57, i32 noundef 4, i32 noundef -2147483648) #10
  %60 = load i32, ptr %3, align 4
  %61 = add i32 %60, 4
  store i32 %61, ptr %3, align 4
  %62 = load i32, ptr @hf_mbim_set_ms_provisioned_context_v2_auth_protocol, align 4
  %63 = call ptr @proto_tree_add_item(ptr noundef %2, i32 noundef %62, ptr noundef %0, i32 noundef %61, i32 noundef 4, i32 noundef -2147483648) #10
  %64 = load i32, ptr %3, align 4
  %65 = add i32 %64, 4
  store i32 %65, ptr %3, align 4
  %66 = getelementptr inbounds nuw i8, ptr %5, i64 24
  %67 = load i32, ptr %66, align 8
  %68 = icmp ugt i32 %67, 3
  br i1 %68, label %73, label %69

69:                                               ; preds = %6
  %70 = icmp eq i32 %67, 0
  %71 = load i32, ptr @preferred_mbim_extended_version, align 4
  %72 = icmp sgt i32 %71, 3
  %or.cond = select i1 %70, i1 %72, i1 false
  br i1 %or.cond, label %73, label %76

73:                                               ; preds = %6, %69
  %74 = load i32, ptr @ett_mbim_pair_list, align 4
  %75 = call ptr (ptr, ptr, i32, i32, i32, ptr, ptr, ...) @proto_tree_add_subtree_format(ptr noundef %2, ptr noundef %0, i32 noundef %65, i32 noundef 0, i32 noundef %74, ptr noundef null, ptr noundef nonnull @.str.2536) #10
  call fastcc void @mbim_dissect_tlv_ie(ptr noundef %0, ptr noundef %1, ptr noundef %75, ptr noundef %3)
  br label %76

76:                                               ; preds = %69, %73
  %77 = load i32, ptr %7, align 4
  %78 = icmp ne i32 %77, 0
  %79 = load i32, ptr %8, align 4
  %80 = icmp ne i32 %79, 0
  %or.cond3 = select i1 %78, i1 %80, i1 false
  br i1 %or.cond3, label %81, label %89

81:                                               ; preds = %76
  %82 = load i32, ptr @hf_mbim_set_ms_provisioned_context_v2_access_string, align 4
  %83 = add i32 %77, %4
  %84 = call ptr @proto_tree_add_item(ptr noundef %2, i32 noundef %82, ptr noundef %0, i32 noundef %83, i32 noundef %79, i32 noundef -2147483644) #10
  %85 = load i32, ptr %8, align 4
  %86 = icmp ugt i32 %85, 200
  br i1 %86, label %87, label %89

87:                                               ; preds = %81
  %88 = call ptr @expert_add_info(ptr noundef %1, ptr noundef %84, ptr noundef nonnull @ei_mbim_oversized_string) #10
  br label %89

89:                                               ; preds = %81, %87, %76
  %90 = load i32, ptr %9, align 4
  %91 = icmp ne i32 %90, 0
  %92 = load i32, ptr %10, align 4
  %93 = icmp ne i32 %92, 0
  %or.cond5 = select i1 %91, i1 %93, i1 false
  br i1 %or.cond5, label %94, label %102

94:                                               ; preds = %89
  %95 = load i32, ptr @hf_mbim_set_ms_provisioned_context_v2_user_name, align 4
  %96 = add i32 %90, %4
  %97 = call ptr @proto_tree_add_item(ptr noundef %2, i32 noundef %95, ptr noundef %0, i32 noundef %96, i32 noundef %92, i32 noundef -2147483644) #10
  %98 = load i32, ptr %10, align 4
  %99 = icmp ugt i32 %98, 510
  br i1 %99, label %100, label %102

100:                                              ; preds = %94
  %101 = call ptr @expert_add_info(ptr noundef %1, ptr noundef %97, ptr noundef nonnull @ei_mbim_oversized_string) #10
  br label %102

102:                                              ; preds = %94, %100, %89
  %103 = load i32, ptr %11, align 4
  %104 = icmp ne i32 %103, 0
  %105 = load i32, ptr %12, align 4
  %106 = icmp ne i32 %105, 0
  %or.cond7 = select i1 %104, i1 %106, i1 false
  br i1 %or.cond7, label %107, label %115

107:                                              ; preds = %102
  %108 = load i32, ptr @hf_mbim_set_ms_provisioned_context_v2_password, align 4
  %109 = add i32 %103, %4
  %110 = call ptr @proto_tree_add_item(ptr noundef %2, i32 noundef %108, ptr noundef %0, i32 noundef %109, i32 noundef %105, i32 noundef -2147483644) #10
  %111 = load i32, ptr %12, align 4
  %112 = icmp ugt i32 %111, 510
  br i1 %112, label %113, label %115

113:                                              ; preds = %107
  %114 = call ptr @expert_add_info(ptr noundef %1, ptr noundef %110, ptr noundef nonnull @ei_mbim_oversized_string) #10
  br label %115

115:                                              ; preds = %107, %113, %102
  ret void
}